Script started on 2026-02-26 15:23:53-05:00 [TERM="xterm-256color" TTY="/dev/pts/8" COLUMNS="127" LINES="16"]
[?2004h]0;rfeng2@remote00: ~/i220/submit/lab5-sol[01;32mrfeng2@remote00[00m:[01;34m~/i220/submit/lab5-sol[00m$ size hello
[?2004l
   text	   data	    bss	    dec	    hex	filename
   1732	    592	     48	   2372	    944	hello
[?2004h]0;rfeng2@remote00: ~/i220/submit/lab5-sol[01;32mrfeng2@remote00[00m:[01;34m~/i220/submit/lab5-sol[00m$ size -A hello
[?2004l
hello  :
section              size    addr
.interp                28     792
.note.gnu.property     32     824
.note.gnu.build-id     36     856
.note.ABI-tag          32     892
.gnu.hash              48     928
.dynsym               240     976
.dynstr               163    1216
.gnu.version           20    1380
.gnu.version_r         48    1400
.rela.dyn             240    1448
.rela.plt              48    1688
.init                  23    4096
.plt                   48    4128
.plt.got                8    4176
.text                 420    4192
.fini                   9    4612
.rodata                33    8192
.eh_frame_hdr          52    8228
.eh_frame             204    8280
.init_array             8   15824
.fini_array             8   15832
.dynamic              480   15840
.got                   40   16320
.got.plt               40   16360
.data                  16   16400
.bss                   48   16416
.comment               39       0
.debug_aranges         48       0
.debug_info           857       0
.debug_abbrev         359       0
.debug_line           178       0
.debug_str            584       0
.debug_line_str       227       0
Total                4664


[?2004h]0;rfeng2@remote00: ~/i220/submit/lab5-sol[01;32mrfeng2@remote00[00m:[01;34m~/i220/submit/lab5-sol[00m$ [7mobjdump -d hello > hello.objdump[27mobjdump -d hello > hello.objdump
[?2004l
[?2004h]0;rfeng2@remote00: ~/i220/submit/lab5-sol[01;32mrfeng2@remote00[00m:[01;34m~/i220/submit/lab5-sol[00m$ [7mobjdump -d -s -x hello > hello.objdump[27mobjdump -d -s -x hello > hello.objdump
[?2004l
[?2004h]0;rfeng2@remote00: ~/i220/submit/lab5-sol[01;32mrfeng2@remote00[00m:[01;34m~/i220/submit/lab5-sol[00m$ [7mobjdump -d hello | grep  -A40 'main.'[27mobjdump -d hello | grep  -A40 'main.'
[?2004l
    1074:	48 8d 3d 00 01 00 00 	lea    0x100(%rip),%rdi        # 117b <main>
    107b:	ff 15 3f 2f 00 00    	call   *0x2f3f(%rip)        # 3fc0 <__libc_start_main@GLIBC_2.34>
    1081:	f4                   	hlt
    1082:	66 2e 0f 1f 84 00 00 	cs nopw 0x0(%rax,%rax,1)
    1089:	00 00 00 
    108c:	0f 1f 40 00          	nopl   0x0(%rax)

0000000000001090 <deregister_tm_clones>:
    1090:	48 8d 3d 89 2f 00 00 	lea    0x2f89(%rip),%rdi        # 4020 <stdout@GLIBC_2.2.5>
    1097:	48 8d 05 82 2f 00 00 	lea    0x2f82(%rip),%rax        # 4020 <stdout@GLIBC_2.2.5>
    109e:	48 39 f8             	cmp    %rdi,%rax
    10a1:	74 15                	je     10b8 <deregister_tm_clones+0x28>
    10a3:	48 8b 05 1e 2f 00 00 	mov    0x2f1e(%rip),%rax        # 3fc8 <_ITM_deregisterTMCloneTable@Base>
    10aa:	48 85 c0             	test   %rax,%rax
    10ad:	74 09                	je     10b8 <deregister_tm_clones+0x28>
    10af:	ff e0                	jmp    *%rax
    10b1:	0f 1f 80 00 00 00 00 	nopl   0x0(%rax)
    10b8:	c3                   	ret
    10b9:	0f 1f 80 00 00 00 00 	nopl   0x0(%rax)

00000000000010c0 <register_tm_clones>:
    10c0:	48 8d 3d 59 2f 00 00 	lea    0x2f59(%rip),%rdi        # 4020 <stdout@GLIBC_2.2.5>
    10c7:	48 8d 35 52 2f 00 00 	lea    0x2f52(%rip),%rsi        # 4020 <stdout@GLIBC_2.2.5>
    10ce:	48 29 fe             	sub    %rdi,%rsi
    10d1:	48 89 f0             	mov    %rsi,%rax
    10d4:	48 c1 ee 3f          	shr    $0x3f,%rsi
    10d8:	48 c1 f8 03          	sar    $0x3,%rax
    10dc:	48 01 c6             	add    %rax,%rsi
    10df:	48 d1 fe             	sar    %rsi
    10e2:	74 14                	je     10f8 <register_tm_clones+0x38>
    10e4:	48 8b 05 ed 2e 00 00 	mov    0x2eed(%rip),%rax        # 3fd8 <_ITM_registerTMCloneTable@Base>
    10eb:	48 85 c0             	test   %rax,%rax
    10ee:	74 08                	je     10f8 <register_tm_clones+0x38>
    10f0:	ff e0                	jmp    *%rax
    10f2:	66 0f 1f 44 00 00    	nopw   0x0(%rax,%rax,1)
    10f8:	c3                   	ret
    10f9:	0f 1f 80 00 00 00 00 	nopl   0x0(%rax)

0000000000001100 <__do_global_dtors_aux>:
    1100:	f3 0f 1e fa          	endbr64
    1104:	80 3d 3d 2f 00 00 00 	cmpb   $0x0,0x2f3d(%rip)        # 4048 <completed.0>
    110b:	75 2b                	jne    1138 <__do_global_dtors_aux+0x38>
--
000000000000117b <main>:
    117b:	55                   	push   %rbp
    117c:	48 89 e5             	mov    %rsp,%rbp
    117f:	48 83 ec 20          	sub    $0x20,%rsp
    1183:	89 7d ec             	mov    %edi,-0x14(%rbp)
    1186:	48 89 75 e0          	mov    %rsi,-0x20(%rbp)
    118a:	83 7d ec 01          	cmpl   $0x1,-0x14(%rbp)
    118e:	75 2f                	jne    11bf <main+0x44>
    1190:	48 8b 45 e0          	mov    -0x20(%rbp),%rax
    1194:	48 8b 10             	mov    (%rax),%rdx
    1197:	48 8b 05 a2 2e 00 00 	mov    0x2ea2(%rip),%rax        # 4040 <stderr@GLIBC_2.2.5>
    119e:	48 8d 0d 69 0e 00 00 	lea    0xe69(%rip),%rcx        # 200e <_IO_stdin_used+0xe>
    11a5:	48 89 ce             	mov    %rcx,%rsi
    11a8:	48 89 c7             	mov    %rax,%rdi
    11ab:	b8 00 00 00 00       	mov    $0x0,%eax
    11b0:	e8 7b fe ff ff       	call   1030 <fprintf@plt>
    11b5:	bf ef be ad de       	mov    $0xdeadbeef,%edi
    11ba:	e8 81 fe ff ff       	call   1040 <exit@plt>
    11bf:	c7 45 fc 01 00 00 00 	movl   $0x1,-0x4(%rbp)
    11c6:	eb 2d                	jmp    11f5 <main+0x7a>
    11c8:	8b 45 fc             	mov    -0x4(%rbp),%eax
    11cb:	48 98                	cltq
    11cd:	48 8d 14 c5 00 00 00 	lea    0x0(,%rax,8),%rdx
    11d4:	00 
    11d5:	48 8b 45 e0          	mov    -0x20(%rbp),%rax
    11d9:	48 01 d0             	add    %rdx,%rax
    11dc:	48 8b 10             	mov    (%rax),%rdx
    11df:	48 8b 05 3a 2e 00 00 	mov    0x2e3a(%rip),%rax        # 4020 <stdout@GLIBC_2.2.5>
    11e6:	48 89 d6             	mov    %rdx,%rsi
    11e9:	48 89 c7             	mov    %rax,%rdi
    11ec:	e8 58 ff ff ff       	call   1149 <hello>
    11f1:	83 45 fc 01          	addl   $0x1,-0x4(%rbp)
    11f5:	8b 45 fc             	mov    -0x4(%rbp),%eax
    11f8:	3b 45 ec             	cmp    -0x14(%rbp),%eax
    11fb:	7c cb                	jl     11c8 <main+0x4d>
    11fd:	b8 00 00 00 00       	mov    $0x0,%eax
    1202:	c9                   	leave
    1203:	c3                   	ret

Disassembly of section .fini:

0000000000001204 <_fini>:
    1204:	48 83 ec 08          	sub    $0x8,%rsp
    1208:	48 83 c4 08          	add    $0x8,%rsp
    120c:	c3                   	ret
[?2004h]0;rfeng2@remote00: ~/i220/submit/lab5-sol[01;32mrfeng2@remote00[00m:[01;34m~/i220/submit/lab5-sol[00m$ [7m$ ls -l hello[27m$ ls -l hello[1P[1P
[?2004l
-rwxr-x--- 1 rfeng2 rfeng2 18848 Feb 26 15:23 [0m[01;32mhello[0m
[?2004h]0;rfeng2@remote00: ~/i220/submit/lab5-sol[01;32mrfeng2@remote00[00m:[01;34m~/i220/submit/lab5-sol[00m$ strikp[K[Kp hello
[?2004l
[?2004h]0;rfeng2@remote00: ~/i220/submit/lab5-sol[01;32mrfeng2@remote00[00m:[01;34m~/i220/submit/lab5-sol[00m$ strip hellols -l[C[C[C[C[C[C
[?2004l
-rwxr-x--- 1 rfeng2 rfeng2 14488 Feb 26 15:25 [0m[01;32mhello[0m
[?2004h]0;rfeng2@remote00: ~/i220/submit/lab5-sol[01;32mrfeng2@remote00[00m:[01;34m~/i220/submit/lab5-sol[00m$ make clean
[?2004l
rm -f hello hello.s *.objdump *~
[?2004h]0;rfeng2@remote00: ~/i220/submit/lab5-sol[01;32mrfeng2@remote00[00m:[01;34m~/i220/submit/lab5-sol[00m$ [?2004l

exit

Script done on 2026-02-26 15:25:26-05:00 [COMMAND_EXIT_CODE="0"]
